target datalayout = "e-m:e-p270:32:32-p271:32:32-p272:64:64-i64:64-i128:128-f80:128-n8:16:32:64-S128"
target triple = "x86_64-pc-linux-gnu"

%"class.std::__cxx11::basic_string" = type { %"struct.std::__cxx11::basic_string<char>::_Alloc_hider", i64, %union.anon }
%"struct.std::__cxx11::basic_string<char>::_Alloc_hider" = type { ptr }
%union.anon = type { i64, [8 x i8] }
%"class.std::allocator" = type { i8 }

@_ZZN32pxrInternal_v0_24__pxrReserved__16HdVtBufferSource20GetDefaultMatrixTypeEvE10matrixType = internal global i32 0, align 4
@_ZGVZN32pxrInternal_v0_24__pxrReserved__16HdVtBufferSource20GetDefaultMatrixTypeEvE10matrixType = internal global i64 0, align 8
@.str.2 = private unnamed_addr constant [24 x i8] c"HD_ENABLE_DOUBLE_MATRIX\00", align 1

; Function Attrs: mustprogress uwtable
define noundef i32 @_ZN32pxrInternal_v0_24__pxrReserved__16HdVtBufferSource20GetDefaultMatrixTypeEv() #4 align 2 personality ptr @__gxx_personality_v0 {
  %1 = alloca %"class.std::__cxx11::basic_string", align 8
  %2 = alloca %"class.std::allocator", align 1
  %3 = alloca ptr, align 8
  %4 = alloca i32, align 4
  %5 = load atomic i8, ptr @_ZGVZN32pxrInternal_v0_24__pxrReserved__16HdVtBufferSource20GetDefaultMatrixTypeEvE10matrixType acquire, align 8
  %6 = icmp eq i8 %5, 0
  br i1 %6, label %7, label %15, !prof !13

7:                                                ; preds = %0
  %8 = call i32 @__cxa_guard_acquire(ptr @_ZGVZN32pxrInternal_v0_24__pxrReserved__16HdVtBufferSource20GetDefaultMatrixTypeEvE10matrixType) #3
  %9 = icmp ne i32 %8, 0
  br i1 %9, label %10, label %15

10:                                               ; preds = %7
  call void @_ZNSaIcEC1Ev(ptr noundef nonnull align 1 dereferenceable(1) %2) #3
  invoke void @_ZNSt7__cxx1112basic_stringIcSt11char_traitsIcESaIcEEC2IS3_EEPKcRKS3_(ptr noundef nonnull align 8 dereferenceable(32) %1, ptr noundef @.str.2, ptr noundef nonnull align 1 dereferenceable(1) %2)
          to label %11 unwind label %17

11:                                               ; preds = %10
  %12 = invoke noundef zeroext i1 @_ZN32pxrInternal_v0_24__pxrReserved__12TfGetenvBoolERKNSt7__cxx1112basic_stringIcSt11char_traitsIcESaIcEEEb(ptr noundef nonnull align 8 dereferenceable(32) %1, i1 noundef zeroext false)
          to label %13 unwind label %21

13:                                               ; preds = %11
  %14 = select i1 %12, i32 24, i32 18
  call void @_ZNSt7__cxx1112basic_stringIcSt11char_traitsIcESaIcEED1Ev(ptr noundef nonnull align 8 dereferenceable(32) %1) #3
  call void @_ZNSaIcED1Ev(ptr noundef nonnull align 1 dereferenceable(1) %2) #3
  store i32 %14, ptr @_ZZN32pxrInternal_v0_24__pxrReserved__16HdVtBufferSource20GetDefaultMatrixTypeEvE10matrixType, align 4
  call void @__cxa_guard_release(ptr @_ZGVZN32pxrInternal_v0_24__pxrReserved__16HdVtBufferSource20GetDefaultMatrixTypeEvE10matrixType) #3
  br label %15

15:                                               ; preds = %13, %7, %0
  %16 = load i32, ptr @_ZZN32pxrInternal_v0_24__pxrReserved__16HdVtBufferSource20GetDefaultMatrixTypeEvE10matrixType, align 4
  ret i32 %16

17:                                               ; preds = %10
  %18 = landingpad { ptr, i32 }
          cleanup
  %19 = extractvalue { ptr, i32 } %18, 0
  store ptr %19, ptr %3, align 8
  %20 = extractvalue { ptr, i32 } %18, 1
  store i32 %20, ptr %4, align 4
  br label %25

21:                                               ; preds = %11
  %22 = landingpad { ptr, i32 }
          cleanup
  %23 = extractvalue { ptr, i32 } %22, 0
  store ptr %23, ptr %3, align 8
  %24 = extractvalue { ptr, i32 } %22, 1
  store i32 %24, ptr %4, align 4
  call void @_ZNSt7__cxx1112basic_stringIcSt11char_traitsIcESaIcEED1Ev(ptr noundef nonnull align 8 dereferenceable(32) %1) #3
  br label %25

25:                                               ; preds = %21, %17
  call void @_ZNSaIcED1Ev(ptr noundef nonnull align 1 dereferenceable(1) %2) #3
  call void @__cxa_guard_abort(ptr @_ZGVZN32pxrInternal_v0_24__pxrReserved__16HdVtBufferSource20GetDefaultMatrixTypeEvE10matrixType) #3
  br label %26

26:                                               ; preds = %25
  %27 = load ptr, ptr %3, align 8
  %28 = load i32, ptr %4, align 4
  %29 = insertvalue { ptr, i32 } poison, ptr %27, 0
  %30 = insertvalue { ptr, i32 } %29, i32 %28, 1
  resume { ptr, i32 } %30
}