; Function Attrs: mustprogress uwtable
define noundef range(i32 0, 25) i32 @_ZN32pxrInternal_v0_24__pxrReserved__16HdVtBufferSource20GetDefaultMatrixTypeEv() local_unnamed_addr #3 align 2 personality ptr @__gxx_personality_v0 {
  %1 = alloca %"class.std::__cxx11::basic_string", align 8
  %2 = alloca %"class.std::allocator", align 1
  %3 = load atomic i8, ptr @_ZGVZN32pxrInternal_v0_24__pxrReserved__16HdVtBufferSource20GetDefaultMatrixTypeEvE10matrixType acquire, align 8
  %4 = icmp eq i8 %3, 0
  br i1 %4, label %5, label %12, !prof !13

5:                                                ; preds = %0
  %6 = tail call i32 @__cxa_guard_acquire(ptr nonnull @_ZGVZN32pxrInternal_v0_24__pxrReserved__16HdVtBufferSource20GetDefaultMatrixTypeEvE10matrixType) #18
  %.not = icmp eq i32 %6, 0
  br i1 %.not, label %12, label %7

7:                                                ; preds = %5
  call void @_ZNSaIcEC1Ev(ptr noundef nonnull align 1 dereferenceable(1) %2) #18
  invoke void @_ZNSt7__cxx1112basic_stringIcSt11char_traitsIcESaIcEEC2IS3_EEPKcRKS3_(ptr noundef nonnull align 8 dereferenceable(32) %1, ptr noundef nonnull @.str.2, ptr noundef nonnull align 1 dereferenceable(1) %2)
          to label %8 unwind label %14

8:                                                ; preds = %7
  %9 = invoke noundef zeroext i1 @_ZN32pxrInternal_v0_24__pxrReserved__12TfGetenvBoolERKNSt7__cxx1112basic_stringIcSt11char_traitsIcESaIcEEEb(ptr noundef nonnull align 8 dereferenceable(32) %1, i1 noundef zeroext false)
          to label %10 unwind label %16

10:                                               ; preds = %8
  %11 = select i1 %9, i32 24, i32 18
  call void @_ZNSt7__cxx1112basic_stringIcSt11char_traitsIcESaIcEED1Ev(ptr noundef nonnull align 8 dereferenceable(32) %1) #18
  call void @_ZNSaIcED1Ev(ptr noundef nonnull align 1 dereferenceable(1) %2) #18
  store i32 %11, ptr @_ZZN32pxrInternal_v0_24__pxrReserved__16HdVtBufferSource20GetDefaultMatrixTypeEvE10matrixType, align 4
  call void @__cxa_guard_release(ptr nonnull @_ZGVZN32pxrInternal_v0_24__pxrReserved__16HdVtBufferSource20GetDefaultMatrixTypeEvE10matrixType) #18
  br label %12

12:                                               ; preds = %10, %5, %0
  %13 = load i32, ptr @_ZZN32pxrInternal_v0_24__pxrReserved__16HdVtBufferSource20GetDefaultMatrixTypeEvE10matrixType, align 4
  ret i32 %13

14:                                               ; preds = %7
  %15 = landingpad { ptr, i32 }
          cleanup
  br label %18

16:                                               ; preds = %8
  %17 = landingpad { ptr, i32 }
          cleanup
  call void @_ZNSt7__cxx1112basic_stringIcSt11char_traitsIcESaIcEED1Ev(ptr noundef nonnull align 8 dereferenceable(32) %1) #18
  br label %18

18:                                               ; preds = %16, %14
  %.pn = phi { ptr, i32 } [ %17, %16 ], [ %15, %14 ]
  call void @_ZNSaIcED1Ev(ptr noundef nonnull align 1 dereferenceable(1) %2) #18
  call void @__cxa_guard_abort(ptr nonnull @_ZGVZN32pxrInternal_v0_24__pxrReserved__16HdVtBufferSource20GetDefaultMatrixTypeEvE10matrixType) #18
  resume { ptr, i32 } %.pn
}